; Function Attrs: mustprogress uwtable
define dso_local void @_ZN23btReducedDeformableBody13setFixedNodesEi(ptr noundef nonnull align 8 captures(none) dereferenceable(3176) %0, i32 noundef %1) local_unnamed_addr #4 align 2 {
  %3 = getelementptr inbounds nuw i8, ptr %0, i64 3108
  %4 = load i32, ptr %3, align 4, !tbaa !129
  %5 = getelementptr inbounds nuw i8, ptr %0, i64 3112
  %6 = load i32, ptr %5, align 8, !tbaa !130
  %7 = icmp eq i32 %4, %6
  br i1 %7, label %8, label %_ZN20btAlignedObjectArrayIiE9push_backERKi.exit

8:                                                ; preds = %2
  %.not.i.i = icmp eq i32 %4, 0
  %9 = shl nsw i32 %4, 1
  %10 = select i1 %.not.i.i, i32 1, i32 %9
  %11 = icmp slt i32 %4, %10
  br i1 %11, label %12, label %_ZN20btAlignedObjectArrayIiE9push_backERKi.exit

12:                                               ; preds = %8
  %.not.i.i.i = icmp eq i32 %10, 0
  br i1 %.not.i.i.i, label %_ZN20btAlignedObjectArrayIiE8allocateEi.exit.i.i, label %13

13:                                               ; preds = %12
  %14 = sext i32 %10 to i64
  %15 = shl nsw i64 %14, 2
  %16 = tail call noundef ptr @_Z22btAlignedAllocInternalmi(i64 noundef %15, i32 noundef 16)
  %.pre.i = load i32, ptr %3, align 4, !tbaa !129
  br label %_ZN20btAlignedObjectArrayIiE8allocateEi.exit.i.i

_ZN20btAlignedObjectArrayIiE8allocateEi.exit.i.i: ; preds = %13, %12
  %17 = phi i32 [ %.pre.i, %13 ], [ %4, %12 ]
  %.0.i.i.i = phi ptr [ %16, %13 ], [ null, %12 ]
  %18 = icmp sgt i32 %17, 0
  %19 = getelementptr inbounds nuw i8, ptr %0, i64 3120
  %20 = load ptr, ptr %19, align 8, !tbaa !128
  br i1 %18, label %.lr.ph.i.i.i, label %_ZNK20btAlignedObjectArrayIiE4copyEiiPi.exit.i.i

.lr.ph.i.i.i:                                     ; preds = %_ZN20btAlignedObjectArrayIiE8allocateEi.exit.i.i
  %wide.trip.count.i.i.i = zext nneg i32 %17 to i64
  br label %21

21:                                               ; preds = %21, %.lr.ph.i.i.i
  %indvars.iv.i.i.i = phi i64 [ 0, %.lr.ph.i.i.i ], [ %indvars.iv.next.i.i.i, %21 ]
  %22 = getelementptr inbounds nuw i32, ptr %.0.i.i.i, i64 %indvars.iv.i.i.i
  %23 = getelementptr inbounds nuw i32, ptr %20, i64 %indvars.iv.i.i.i
  %24 = load i32, ptr %23, align 4, !tbaa !169
  store i32 %24, ptr %22, align 4, !tbaa !169
  %indvars.iv.next.i.i.i = add nuw nsw i64 %indvars.iv.i.i.i, 1
  %exitcond.not.i.i.i = icmp eq i64 %indvars.iv.next.i.i.i, %wide.trip.count.i.i.i
  br i1 %exitcond.not.i.i.i, label %_ZNK20btAlignedObjectArrayIiE4copyEiiPi.exit.thread.i.i, label %21, !llvm.loop !170

_ZNK20btAlignedObjectArrayIiE4copyEiiPi.exit.i.i: ; preds = %_ZN20btAlignedObjectArrayIiE8allocateEi.exit.i.i
  %.not.i5.i.i = icmp eq ptr %20, null
  br i1 %.not.i5.i.i, label %_ZN20btAlignedObjectArrayIiE10deallocateEv.exit.i.i, label %_ZNK20btAlignedObjectArrayIiE4copyEiiPi.exit.thread.i.i

_ZNK20btAlignedObjectArrayIiE4copyEiiPi.exit.thread.i.i: ; preds = %21, %_ZNK20btAlignedObjectArrayIiE4copyEiiPi.exit.i.i
  %25 = getelementptr inbounds nuw i8, ptr %0, i64 3128
  %26 = load i8, ptr %25, align 8, !tbaa !127, !range !145, !noundef !146
  %27 = trunc nuw i8 %26 to i1
  br i1 %27, label %28, label %29

28:                                               ; preds = %_ZNK20btAlignedObjectArrayIiE4copyEiiPi.exit.thread.i.i
  tail call void @_Z21btAlignedFreeInternalPv(ptr noundef nonnull %20)
  br label %29

29:                                               ; preds = %28, %_ZNK20btAlignedObjectArrayIiE4copyEiiPi.exit.thread.i.i
  %.pre2.pre.i = load i32, ptr %3, align 4, !tbaa !129
  br label %_ZN20btAlignedObjectArrayIiE10deallocateEv.exit.i.i

_ZN20btAlignedObjectArrayIiE10deallocateEv.exit.i.i: ; preds = %29, %_ZNK20btAlignedObjectArrayIiE4copyEiiPi.exit.i.i
  %.pre2.i = phi i32 [ %.pre2.pre.i, %29 ], [ %17, %_ZNK20btAlignedObjectArrayIiE4copyEiiPi.exit.i.i ]
  %30 = getelementptr inbounds nuw i8, ptr %0, i64 3128
  store i8 1, ptr %30, align 8, !tbaa !127
  store ptr %.0.i.i.i, ptr %19, align 8, !tbaa !128
  store i32 %10, ptr %5, align 8, !tbaa !130
  br label %_ZN20btAlignedObjectArrayIiE9push_backERKi.exit

_ZN20btAlignedObjectArrayIiE9push_backERKi.exit:  ; preds = %2, %8, %_ZN20btAlignedObjectArrayIiE10deallocateEv.exit.i.i
  %31 = phi i32 [ %.pre2.i, %_ZN20btAlignedObjectArrayIiE10deallocateEv.exit.i.i ], [ %4, %8 ], [ %4, %2 ]
  %32 = getelementptr inbounds nuw i8, ptr %0, i64 3120
  %33 = load ptr, ptr %32, align 8, !tbaa !128
  %34 = sext i32 %31 to i64
  %35 = getelementptr inbounds i32, ptr %33, i64 %34
  store i32 %1, ptr %35, align 4, !tbaa !169
  %36 = load i32, ptr %3, align 4, !tbaa !129
  %37 = add nsw i32 %36, 1
  store i32 %37, ptr %3, align 4, !tbaa !129
  %38 = getelementptr inbounds nuw i8, ptr %0, i64 944
  %39 = load ptr, ptr %38, align 8, !tbaa !152
  %40 = sext i32 %1 to i64
  %41 = getelementptr inbounds %"struct.btSoftBody::Node", ptr %39, i64 %40, i32 7
  store float 0.000000e+00, ptr %41, align 8, !tbaa !153
  ret void
}